; Function Attrs: nounwind uwtable
define hidden zeroext i1 @SDL_HapticEffectSupported_REAL(ptr noundef %0, ptr noundef readonly captures(address_is_null) %1) local_unnamed_addr #0 {
  %3 = tail call zeroext i1 @SDL_ObjectValid(ptr noundef %0, i32 noundef 6) #9
  br i1 %3, label %6, label %4

4:                                                ; preds = %2
  %5 = tail call zeroext i1 (ptr, ...) @SDL_SetError_REAL(ptr noundef nonnull @.str, ptr noundef nonnull @.str.1) #9
  br label %13

6:                                                ; preds = %2
  %.not = icmp eq ptr %1, null
  br i1 %.not, label %13, label %7

7:                                                ; preds = %6
  %8 = getelementptr inbounds nuw i8, ptr %0, i64 32
  %9 = load i32, ptr %8, align 8
  %10 = load i16, ptr %1, align 8
  %11 = zext i16 %10 to i32
  %12 = and i32 %9, %11
  %.not6 = icmp ne i32 %12, 0
  br label %13

13:                                               ; preds = %7, %6, %4
  %.0 = phi i1 [ false, %4 ], [ false, %6 ], [ %.not6, %7 ]
  ret i1 %.0
}